(lp0
S'A Nous la Liberte '
p1
aS'About Schmidt '
p2
aS'Absence of Malice '
p3
aS"Adam's Rib "
p4
aS'Adaptation '
p5
aS'The Adjuster '
p6
aS'The Adventures of Robin Hood '
p7
aS'Affliction '
p8
aS'The African Queen '
p9
aS'A.I. '
p10
aS'Airplane! '
p11
aS'Aladdin '
p12
aS'Alexander Nevsky '
p13
aS"Alice Doesn't Live Here Anymore "
p14
aS"Alice's Restaurant "
p15
aS'Aliens '
p16
aS'All About Eve '
p17
aS'All About My Mother '
p18
aS'All Quiet on the Western Front '
p19
aS'All That Heaven Allows '
p20
aS"All the King's Men "
p21
aS"All the President's Men "
p22
aS'Amadeus '
p23
aS'Amarcord '
p24
aS'Am\xe9lie '
p25
aS'America, America '
p26
aS'The American Friend '
p27
aS'American Graffiti '
p28
aS'An American in Paris '
p29
aS'The Americanization of Emily '
p30
aS'American Movie '
p31
aS'Amores Perros '
p32
aS'Anastasia '
p33
aS'Anatomy of a Murder '
p34
aS'The Angry Silence '
p35
aS'Anna and the King of Siam '
p36
aS'Anna Christie '
p37
aS'Annie Hall '
p38
aS'The Apartment '
p39
aS'Apocalypse Now '
p40
aS'Apollo 13 '
p41
aS'The Apostle '
p42
aS"L'Argent "
p43
aS'Ashes and Diamonds '
p44
aS'The Asphalt Jungle '
p45
aS'Atlantic City '
p46
aS'Au Revoir Les Enfants '
p47
aS"L'Avventura "
p48
aS'The Awful Truth '
p49
aS"Babette's Feast "
p50
aS'Baby Doll '
p51
aS'Back to the Future '
p52
aS'The Bad and the Beautiful '
p53
aS'Bad Day at Black Rock '
p54
aS'Badlands '
p55
aS"The Baker's Wife "
p56
aS'Ball of Fire '
p57
aS'The Ballad of Cable Hogue '
p58
aS'Bambi '
p59
aS'The Band Wagon '
p60
aS'Bang the Drum Slowly '
p61
aS'The Bank Dick '
p62
aS'Barfly '
p63
aS'Barry Lyndon '
p64
aS'Barton Fink '
p65
aS'Le Beau Mariage '
p66
aS'Beautiful People '
p67
aS'Beauty and the Beast '
p68
aS'Beauty and the Beast '
p69
aS'Bed and Board '
p70
aS'Beetlejuice '
p71
aS'Before Night Falls '
p72
aS'Being John Malkovich '
p73
aS'Being There '
p74
aS'Belle de Jour '
p75
aS'Ben-Hur '
p76
aS'Berlin Alexanderplatz '
p77
aS'The Best Years of Our Lives '
p78
aS'Beverly Hills Cop '
p79
aS'The Bicycle Thief '
p80
aS'The Big Chill '
p81
aS'The Big Clock '
p82
aS'The Big Deal on Madonna Street '
p83
aS'The Big Heat '
p84
aS'Big Night '
p85
aS'The Big Red One '
p86
aS'The Big Sky '
p87
aS'The Big Sleep '
p88
aS'Billy Liar '
p89
aS'Biloxi Blues '
p90
aS'The Birds '
p91
aS'Birdy '
p92
aS'Black Narcissus '
p93
aS'Black Orpheus '
p94
aS'Black Robe '
p95
aS'Blazing Saddles '
p96
aS'Bloody Sunday '
p97
aS'Blow-Up '
p98
aS'Blue Collar '
p99
aS'Blue Velvet '
p100
aS'Bob & Carol & Ted & Alice '
p101
aS'Body Heat '
p102
aS'Bonnie and Clyde '
p103
aS'Boogie Nights '
p104
aS'Born on the Fourth of July '
p105
aS'Born Yesterday '
p106
aS'Le Boucher '
p107
aS'Bound for Glory '
p108
aS"Boys Don't Cry "
p109
aS'Boyz N the Hood '
p110
aS'Brazil '
p111
aS'Bread, Love and Dreams '
p112
aS'Breaker Morant '
p113
aS'The Breakfast Club '
p114
aS'Breaking Away '
p115
aS'Breaking the Waves '
p116
aS'Breathless '
p117
aS'The Bride Wore Black '
p118
aS'The Bridge on the River Kwai '
p119
aS'Brief Encounter '
p120
aS'A Brief History of Time '
p121
aS'Bringing Up Baby '
p122
aS'Broadcast News '
p123
aS"Brother's Keeper "
p124
aS'The Buddy Holly Story '
p125
aS'Bull Durham '
p126
aS'Bullitt '
p127
aS'Bus Stop '
p128
aS'Butch Cassidy and the Sundance Kid '
p129
aS'The Butcher Boy '
p130
aS'Bye Bye Brasil '
p131
aS'The Earrings of Madame De . . . '
p132
aS'Cabaret '
p133
aS'The Caine Mutiny '
p134
aS'California Suite '
p135
aS'Calle 54 '
p136
aS'Camelot '
p137
aS'Camille '
p138
aS'Captains Courageous '
p139
aS'Carmen Jones '
p140
aS'Carnal Knowledge '
p141
aS'Casablanca '
p142
aS'Cat on a Hot Tin Roof '
p143
aS'Catch-22 '
p144
aS'Cavalcade '
p145
aS'The Celebration '
p146
aS'La C\xe9r\xe9monie '
p147
aS'Chan Is Missing '
p148
aS'Chariots of Fire '
p149
aS'Charley Varrick '
p150
aS'Chicago '
p151
aS'Chicken Run '
p152
aS'Chinatown '
p153
aS'Chlo\xeb in the Afternoon '
p154
aS'The Cider House Rules '
p155
aS'The Citadel '
p156
aS'Citizen Kane '
p157
aS"Claire's Knee "
p158
aS'A Clockwork Orange '
p159
aS'Close Encounters of the Third Kind '
p160
aS'Clueless '
p161
aS"Coal Miner's Daughter "
p162
aS'The Color of Money '
p163
aS'Come Back, Little Sheba '
p164
aS'Coming Home '
p165
aS'The Conformist '
p166
aS'The Conquest of Everest '
p167
aS'Contempt '
p168
aS'The Conversation '
p169
aS'Cool Hand Luke '
p170
aS'The Count of Monte Cristo '
p171
aS'The Country Girl '
p172
aS'The Cousins '
p173
aS'The Cranes Are Flying '
p174
aS'Cries and Whispers '
p175
aS'Crossfire '
p176
aS'Crumb '
p177
aS'Cry, the Beloved Country '
p178
aS'The Crying Game '
p179
aS'Damn Yankees '
p180
aS'The Damned '
p181
aS'Dance with a Stranger '
p182
aS'Dangerous Liaisons '
p183
aS'Daniel '
p184
aS'Danton '
p185
aS'Dark Eyes '
p186
aS'Dark Victory '
p187
aS'Darling '
p188
aS'David Copperfield '
p189
aS'Dawn of the Dead '
p190
aS'Day for Night '
p191
aS'The Day of the Jackal '
p192
aS'The Day the Earth Stood Still '
p193
aS'Days of Heaven '
p194
aS'Days of Wine and Roses '
p195
aS'The Dead '
p196
aS'Dead Calm '
p197
aS'Dead End '
p198
aS'Dead Man Walking '
p199
aS'Dead Ringers '
p200
aS'Death in Venice '
p201
aS'Death of a Salesman '
p202
aS'The Decalogue '
p203
aS'Deep End '
p204
aS'The Deer Hunter '
p205
aS'The Defiant Ones '
p206
aS'Deliverance '
p207
aS'Desperately Seeking Susan '
p208
aS'Destry Rides Again '
p209
aS'Diabolique '
p210
aS'Dial M for Murder '
p211
aS'Diary of a Chambermaid '
p212
aS'Die Hard '
p213
aS'Diner '
p214
aS'Dinner at Eight '
p215
aS'The Dirty Dozen '
p216
aS'Dirty Harry '
p217
aS'Dirty Rotten Scoundrels '
p218
aS'The Discreet Charm of the Bourgeoisie '
p219
aS'Disraeli '
p220
aS'Distant Thunder '
p221
aS'Diva '
p222
aS'Divorce-Italian Style '
p223
aS'Do the Right Thing '
p224
aS'Dr. Jekyll and Mr. Hyde '
p225
aS'Dr. Strangelove or: How I Learned to Stop Worrying and Love the Bomb '
p226
aS'Doctor Zhivago '
p227
aS'Dodsworth '
p228
aS'La Dolce Vita '
p229
aS'Donnie Brasco '
p230
aS"Don't Look Back "
p231
aS'Double Indemnity '
p232
aS'Down by Law '
p233
aS'Dracula '
p234
aS'The Dreamlife of Angels '
p235
aS'Dressed to Kill '
p236
aS'The Dresser '
p237
aS'Driving Miss Daisy '
p238
aS'Drowning by Numbers '
p239
aS'Drugstore Cowboy '
p240
aS'Duck Soup '
p241
aS'The Duellists '
p242
aS'Dumbo '
p243
aS'East of Eden '
p244
aS'Easy Living '
p245
aS'Eat Drink Man Woman '
p246
aS'Effi Briest '
p247
aS'8 1/2 '
p248
aS'Eight Men Out '
p249
aS'The Elephant Man '
p250
aS'Elmer Gantry '
p251
aS'Empire of the Sun '
p252
aS'Enemies, A Love Story '
p253
aS'The English Patient '
p254
aS'The Entertainer '
p255
aS'Entre Nous '
p256
aS'E.T. the Extra-Terrestrial '
p257
aS'Europa, Europa '
p258
aS'Every Man for Himself '
p259
aS'The Exorcist '
p260
aS'The Exterminating Angel '
p261
aS'A Face in the Crowd '
p262
aS'Face to Face '
p263
aS'Faces '
p264
aS'The Family Game '
p265
aS'Fanny & Alexander '
p266
aS'Fantasia '
p267
aS'Farewell, My Concubine '
p268
aS'Far from Heaven '
p269
aS'Fargo '
p270
aS'Fast, Cheap & Out of Control '
p271
aS'Fast Runner (Atanarjuat) '
p272
aS'Fat City '
p273
aS'Fatal Attraction '
p274
aS'Father of the Bride '
p275
aS'Fellini Satyricon '
p276
aS'La Femme Infid\xe8le '
p277
aS'La Femme Nikita '
p278
aS'The Fisher King '
p279
aS'Fist in His Pocket '
p280
aS'Fitzcarraldo '
p281
aS'Five Easy Pieces '
p282
aS'The Flamingo Kid '
p283
aS'The Fly '
p284
aS'The Flamingo Kid '
p285
aS'Force of Evil '
p286
aS'For Whom the Bell Tolls '
p287
aS'Forbidden Games '
p288
aS'A Foreign Affair '
p289
aS'The Fortune Cookie '
p290
aS'The 400 Blows '
p291
aS'Frankenstein '
p292
aS'The French Connection '
p293
aS'Frenzy '
p294
aS'Friendly Persuasion '
p295
aS'From Here to Eternity '
p296
aS'The Fugitive '
p297
aS'Full Metal Jacket '
p298
aS'The Full Monty '
p299
aS'Funny Face '
p300
aS'Funny Girl '
p301
aS'Fury '
p302
aS'Gallipoli '
p303
aS'Gandhi '
p304
aS'Gangs of New York '
p305
aS'The Garden of the Finzi-Continis '
p306
aS'Gas Food Lodging '
p307
aS'Gaslight '
p308
aS'Gate of Hell '
p309
aS'A Geisha '
p310
aS'The General '
p311
aS'General Della Rovere '
p312
aS'Genevieve '
p313
aS'Gentlemen Prefer Blondes '
p314
aS'Georgy Girl '
p315
aS'Get Carter '
p316
aS'Get Out Your Handkerchiefs '
p317
aS'Ghost World '
p318
aS'Giant '
p319
aS'Gigi '
p320
aS'Gimme Shelter '
p321
aS"The Girl Can't Help It "
p322
aS'Girl with a Suitcase '
p323
aS'The Gleaners and I '
p324
aS"The Goalie's Anxiety at the Penalty Kick "
p325
aS'The Go-Between '
p326
aS'The Godfather '
p327
aS'The Godfather Part II '
p328
aS'Going My Way '
p329
aS'Goldfinger '
p330
aS'Gone With the Wind '
p331
aS'The Good, the Bad and the Ugly '
p332
aS'The Good Earth '
p333
aS'Goodbye, Mr. Chips '
p334
aS'GoodFellas '
p335
aS'Gosford Park '
p336
aS'The Graduate '
p337
aS'Grand Hotel '
p338
aS'Grand Illusion '
p339
aS'The Grapes of Wrath '
p340
aS'The Great Dictator '
p341
aS'Great Expectations '
p342
aS'The Great Man '
p343
aS'The Great McGinty '
p344
aS'The Greatest Show on Earth '
p345
aS'Green for Danger '
p346
aS"Gregory's Girl "
p347
aS'The Grifters '
p348
aS'Groundhog Day '
p349
aS'The Gunfighter '
p350
aS'Gunga Din '
p351
aS'Hail the Conquering Hero '
p352
aS'Hair '
p353
aS'Hamlet '
p354
aS'Hamlet '
p355
aS'Handle With Care '
p356
aS'Hannah and Her Sisters '
p357
aS'Happiness '
p358
aS"A Hard Day's Night "
p359
aS'Harlan County, USA '
p360
aS'Harry and Tonto '
p361
aS'A Hatful of Rain '
p362
aS'The Heartbreak Kid '
p363
aS'Heartland '
p364
aS"Hearts of Darkness: A Filmmaker's Apocalypse "
p365
aS'Heat and Dust '
p366
aS'Heathers '
p367
aS'Heavy Traffic '
p368
aS'Heimat '
p369
aS'The Heiress '
p370
aS'Henry V '
p371
aS'Henry V '
p372
aS'Henry Fool '
p373
aS'Here Comes Mr. Jordan '
p374
aS'High and Low (Japan) '
p375
aS'The High and the Mighty '
p376
aS'High Art '
p377
aS'High Hopes '
p378
aS'High Noon '
p379
aS'High Sierra '
p380
aS'The Hill '
p381
aS'Hiroshima Mon Amour '
p382
aS'His Girl Friday '
p383
aS'The Homecoming '
p384
aS'Hoop Dreams '
p385
aS'Hope and Glory '
p386
aS'Hotel Terminus: Klaus Barbie et son Temps '
p387
aS'The Hours '
p388
aS'Household Saints '
p389
aS'House of Games '
p390
aS'How Green Was My Valley '
p391
aS'How to Marry a Millionaire '
p392
aS'Howards End '
p393
aS'Hud '
p394
aS"Ken Burns' America: Huey Long "
p395
aS'Husbands and Wives '
p396
aS'The Hustler '
p397
aS"I Know Where I'm Going! "
p398
aS'I Remember Mama '
p399
aS'I Want to Live! '
p400
aS'If... '
p401
aS"I'm All Right Jack "
p402
aS'Imitation of Life '
p403
aS'In Cold Blood '
p404
aS'In the Bedroom '
p405
aS'In the Heat of the Night '
p406
aS'The Informer '
p407
aS'Inherit the Wind '
p408
aS'The Insider '
p409
aS'Internal Affairs '
p410
aS'The Ipcress File '
p411
aS'It Happened One Night '
p412
aS"It's a Gift "
p413
aS"It's a Wonderful Life "
p414
aS'Jailhouse Rock '
p415
aS'Jaws '
p416
aS'The Jazz Singer '
p417
aS'Jean de Florette '
p418
aS'Jerry Maguire '
p419
aS'Johnny Guitar '
p420
aS'The Judge and the Assassin '
p421
aS'Judgment at Nuremberg '
p422
aS'Ju Dou '
p423
aS'Jules and Jim '
p424
aS'Juliet of the Spirits '
p425
aS'Junior Bonner '
p426
aS'Kagemusha '
p427
aS'The Killers '
p428
aS'The Killing Fields '
p429
aS'Kind Hearts and Coronets '
p430
aS'The King and I '
p431
aS'King Kong '
p432
aS'King Lear '
p433
aS'The King of Comedy '
p434
aS'The King of Marvin Gardens '
p435
aS'Kiss of the Spider Woman '
p436
aS'Klute '
p437
aS'Knife in the Water '
p438
aS'Kramer vs. Kramer '
p439
aS'L.A. Confidential '
p440
aS'Lacombe Lucien '
p441
aS'The Lady Eve '
p442
aS'The Lady Vanishes '
p443
aS'Ladybird, Ladybird '
p444
aS'The Last American Hero '
p445
aS'The Last Emperor '
p446
aS'The Last Metro '
p447
aS'The Last Picture Show '
p448
aS'The Last Seduction '
p449
aS'Last Tango in Paris '
p450
aS'The Last Temptation of Christ '
p451
aS'The Last Waltz '
p452
aS'Laura '
p453
aS'The Lavender Hill Mob '
p454
aS'Lawrence of Arabia '
p455
aS'A League of Their Own '
p456
aS'Leaving Las Vegas '
p457
aS'The Leopard '
p458
aS'The Letter '
p459
aS'A Letter to Three Wives '
p460
aS'Les Liaisons Dangereuses 1960 '
p461
aS'The Life and Death of Colonel Blimp '
p462
aS'Life Is Sweet '
p463
aS'The Life of Emile Zola '
p464
aS'Life With Father '
p465
aS'Lili '
p466
aS'Little Big Man '
p467
aS'Little Caesar '
p468
aS'The Little Foxes '
p469
aS'The Little Fugitive '
p470
aS'The Little Kidnappers '
p471
aS'Little Women '
p472
aS'Little Women '
p473
aS'The Lives of a Bengal Lancer '
p474
aS'Living in Oblivion '
p475
aS'Local Hero '
p476
aS'Lola '
p477
aS'Lola Mont\xe8s '
p478
aS'Lolita '
p479
aS'Lone Star '
p480
aS'The Loneliness of the Long Distance Runner '
p481
aS"Long Day's Journey into Night "
p482
aS'The Long Goodbye '
p483
aS'The Long Good Friday '
p484
aS'The Long Voyage Home '
p485
aS'The Longest Day '
p486
aS'Look Back in Anger '
p487
aS'Lost Horizon '
p488
aS'Lost in America '
p489
aS'The Lost Weekend '
p490
aS'Love '
p491
aS'Love Affair '
p492
aS'Love and Death '
p493
aS'A Love in Germany '
p494
aS'Love in the Afternoon '
p495
aS'Lovely and Amazing '
p496
aS'Love on the Run '
p497
aS'Lover Come Back '
p498
aS'The Lovers '
p499
aS'Loves of a Blonde '
p500
aS'Loving '
p501
aS'Lust for Life '
p502
aS'Mad Max '
p503
aS'The Madness of King George '
p504
aS'The Magic Flute '
p505
aS'The Major and the Minor '
p506
aS'Major Barbara '
p507
aS'Make Way for Tomorrow '
p508
aS'Malcolm X '
p509
aS'The Maltese Falcon '
p510
aS'A Man for All Seasons '
p511
aS'Man Hunt '
p512
aS'The Man Who Came to Dinner '
p513
aS'The Man Who Loved Women '
p514
aS"The Man Who Wasn't There "
p515
aS'The Man With the Golden Arm '
p516
aS'The Manchurian Candidate '
p517
aS'Manhattan '
p518
aS'Manon of the Spring '
p519
aS'Marriage Italian Style '
p520
aS'The Marriage of Maria Braun '
p521
aS'Married to the Mob '
p522
aS'The Marrying Kind '
p523
aS'Marty '
p524
aS'Mary Poppins '
p525
aS'M*A*S*H '
p526
aS'The Match Factory Girl '
p527
aS'Mayerling '
p528
aS'McCabe & Mrs. Miller '
p529
aS'Mean Streets '
p530
aS'Meet Me in St. Louis '
p531
aS'Melvin and Howard '
p532
aS'Memories of Underdevelopment '
p533
aS'The Memory of Justice '
p534
aS'The Men '
p535
aS'M\xe9nage '
p536
aS'Metropolitan '
p537
aS'Midnight '
p538
aS'Midnight Cowboy '
p539
aS'Minnie and Moskowitz '
p540
aS"The Miracle of Morgan's Creek "
p541
aS'Miracle on 34th Street '
p542
aS'The Miracle Worker '
p543
aS'Les Miserables '
p544
aS'The Misfits '
p545
aS'Missing '
p546
aS'Mr. and Mrs. Bridge '
p547
aS'Mr. Deeds Goes to Town '
p548
aS"Mr. Hulot's Holiday "
p549
aS'Mister Roberts '
p550
aS'Mr. Smith Goes to Washington '
p551
aS'Mrs. Miniver '
p552
aS"Mon Oncle d'Am\xe9rique "
p553
aS'Mona Lisa '
p554
aS'Monsters, Inc. '
p555
aS'Moonlighting '
p556
aS'Moonstruck '
p557
aS'The More the Merrier '
p558
aS'Morgan! '
p559
aS'The Mortal Storm '
p560
aS'Mother '
p561
aS'Moulin Rouge '
p562
aS'The Mouthpiece '
p563
aS'Much Ado About Nothing '
p564
aS'Mulholland Dr. '
p565
aS'Murmur of the Heart '
p566
aS'Mutiny on the Bounty '
p567
aS'My Beautiful Laundrette '
p568
aS'My Darling Clementine '
p569
aS'My Dinner With Andre '
p570
aS'My Fair Lady '
p571
aS'My Left Foot '
p572
aS'My Life as a Dog '
p573
aS'My Man Godfrey '
p574
aS"My Night at Maud's "
p575
aS'My Own Private Idaho '
p576
aS'My 20th Century '
p577
aS'Mon Oncle '
p578
aS'The Naked Gun: From the Files of Police Squad! '
p579
aS'Nashville '
p580
aS"National Lampoon's Animal House "
p581
aS'National Velvet '
p582
aS'Network '
p583
aS'Never on Sunday '
p584
aS'Night Moves '
p585
aS'The Night of the Hunter '
p586
aS'Night of the Living Dead '
p587
aS'A Night to Remember '
p588
aS'A Nightmare on Elm Street '
p589
aS'1900 '
p590
aS'Ninotchka '
p591
aS"Nobody's Fool "
p592
aS'Norma Rae '
p593
aS'North by Northwest '
p594
aS'Nothing But the Best '
p595
aS'Notorious '
p596
aS'Now, Voyager '
p597
aS'La Nuit De Varennes '
p598
aS"The Nun's Story "
p599
aS'Odd Man Out '
p600
aS'Of Mice and Men '
p601
aS'Oklahoma! '
p602
aS'Oliver Twist '
p603
aS'On the Beach '
p604
aS'On the Town '
p605
aS'On the Waterfront '
p606
aS'One False Move '
p607
aS"One Flew Over the Cuckoo's Nest "
p608
aS'One Foot in Heaven '
p609
aS'One Hour with You '
p610
aS'One Night of Love '
p611
aS'One Potato, Two Potato '
p612
aS'One, Two, Three '
p613
aS'Only Angels Have Wings '
p614
aS'Open City '
p615
aS'Operation Crossbow '
p616
aS'The Opposite of Sex '
p617
aS'Ordinary People '
p618
aS'Our Town '
p619
aS'Out of the Past '
p620
aS'The Outlaw Josey Wales '
p621
aS'The Overlanders '
p622
aS'The Ox-Bow Incident '
p623
aS'Paint Your Wagon '
p624
aS'Paisan '
p625
aS'The Palm Beach Story '
p626
aS'The Parallax View '
p627
aS'A Passage to India '
p628
aS'The Passion of Anna '
p629
aS'Pather Panchali '
p630
aS'Paths of Glory '
p631
aS'Patton '
p632
aS'The Pawnbroker '
p633
aS'Payday '
p634
aS'Pelle the Conqueror '
p635
aS'The People Vs. Larry Flynt '
p636
aS'Persona '
p637
aS'Persuasion '
p638
aS'Le Petit Theatre de Jean Renoir '
p639
aS'Petulia '
p640
aS'The Philadelphia Story '
p641
aS'The Pianist '
p642
aS'The Piano '
p643
aS'Pickup on South Street '
p644
aS'The Pillow Book '
p645
aS'Pillow Talk '
p646
aS'The Pink Panther '
p647
aS'Pinocchio '
p648
aS'Pixote '
p649
aS'A Place in the Sun '
p650
aS'Places in the Heart '
p651
aS'Platoon '
p652
aS'Play Misty for Me '
p653
aS'The Player '
p654
aS'Point Blank '
p655
aS'Poltergeist '
p656
aS'Ponette '
p657
aS'Il Postino (The Postman) '
p658
aS'The Postman Always Rings Twice '
p659
aS'Pretty Baby '
p660
aS'Pride and Prejudice '
p661
aS'The Pride of the Yankees '
p662
aS'Prince of the City '
p663
aS'The Prisoner '
p664
aS'The Private Life of Henry VIII '
p665
aS"Prizzi's Honor "
p666
aS'The Producers '
p667
aS'Psycho '
p668
aS'The Public Enemy '
p669
aS'Pulp Fiction '
p670
aS'The Purple Rose of Cairo '
p671
aS'Pygmalion '
p672
aS'Quadrophenia '
p673
aS'The Quiet Man '
p674
aS'Raging Bull '
p675
aS'Raiders of the Lost Ark '
p676
aS'Rain Man '
p677
aS'Raising Arizona '
p678
aS'Ran '
p679
aS'The Rapture '
p680
aS'Rashomon '
p681
aS'Re-Animator '
p682
aS'Rear Window '
p683
aS'Rebecca '
p684
aS'Rebel Without a Cause '
p685
aS'Red '
p686
aS'The Red Badge of Courage '
p687
aS'Red River '
p688
aS'The Red Shoes '
p689
aS'Reds '
p690
aS'The Remains of the Day '
p691
aS'Repo Man '
p692
aS'Repulsion '
p693
aS'Reservoir Dogs '
p694
aS'The Return of Martin Guerre '
p695
aS'Reuben, Reuben '
p696
aS'Reversal of Fortune '
p697
aS'Richard III '
p698
aS'Ride the High Country '
p699
aS'Rififi '
p700
aS'The Right Stuff '
p701
aS'Risky Business '
p702
aS"River's Edge "
p703
aS'The Road Warrior '
p704
aS'Robocop '
p705
aS'Roger & Me '
p706
aS'Roman Holiday '
p707
aS'Romeo and Juliet '
p708
aS'Romeo and Juliet '
p709
aS'Room at the Top '
p710
aS'A Room With a View '
p711
aS'The Rose Tattoo '
p712
aS"Rosemary's Baby "
p713
aS"'Round Midnight "
p714
aS'Ruggles of Red Gap '
p715
aS'The Ruling Class '
p716
aS'Rushmore '
p717
aS'Ruthless People '
p718
aS'Sahara '
p719
aS'Salaam Bombay! '
p720
aS'Salesman '
p721
aS'Sanjuro '
p722
aS'Sansho the Bailiff '
p723
aS'Saturday Night and Sunday Morning '
p724
aS'Saturday Night Fever '
p725
aS'Saving Private Ryan '
p726
aS'Say Anything... '
p727
aS'Sayonara '
p728
aS'Scenes From a Marriage '
p729
aS"Schindler's List "
p730
aS'The Scoundrel '
p731
aS'The Search '
p732
aS'The Searchers '
p733
aS'Secret Honor '
p734
aS'Secrets and Lies '
p735
aS'Sense and Sensibility '
p736
aS'Sergeant York '
p737
aS'Serpico '
p738
aS'The Set-Up '
p739
aS'Seven Beauties '
p740
aS'Seven Brides for Seven Brothers '
p741
aS'Seven Days to Noon '
p742
aS'The Seven Samurai '
p743
aS'7 Up/28 Up '
p744
aS'The Seven Year Itch '
p745
aS'The Seventh Seal '
p746
aS'Sex, Lies and Videotape '
p747
aS'Sexy Beast '
p748
aS'Shadow of a Doubt '
p749
aS'Shaft '
p750
aS'Shakespeare in Love '
p751
aS'Shane '
p752
aS'She Wore a Yellow Ribbon '
p753
aS"Sherman's March "
p754
aS"She's Gotta Have It "
p755
aS'The Shining '
p756
aS'Ship of Fools '
p757
aS'Shoah '
p758
aS'Shock Corridor '
p759
aS'Shoeshine '
p760
aS'Shoot the Piano Player '
p761
aS'The Shooting Party '
p762
aS'The Shootist '
p763
aS'The Shop Around the Corner '
p764
aS'The Shop on Main Street '
p765
aS'A Shot in the Dark '
p766
aS'Shrek '
p767
aS'Sid and Nancy '
p768
aS'The Silence '
p769
aS'The Silence of the Lambs '
p770
aS'The Silent World '
p771
aS'Silk Stockings '
p772
aS'Silkwood '
p773
aS"Singin' in the Rain "
p774
aS'Sitting Pretty '
p775
aS'Sleeper '
p776
aS'A Slight Case of Murder '
p777
aS'Smash Palace '
p778
aS'Smile '
p779
aS'The Snake Pit '
p780
aS'Snow White and the Seven Dwarfs '
p781
aS'Some Like It Hot '
p782
aS'The Sorrow and the Pity (Le Chagrin et la Piti\xe9) '
p783
aS'The Sound of Music '
p784
aS'South Pacific '
p785
aS'Spartacus '
p786
aS'Spellbound '
p787
aS'The Spiral Staircase '
p788
aS'Spirited Away '
p789
aS'Splendor in the Grass '
p790
aS'Stage Door '
p791
aS'Stagecoach '
p792
aS'Stairway to Heaven '
p793
aS'Stalag 17 '
p794
aS'A Star Is Born '
p795
aS'Star Trek II: The Wrath of Khan '
p796
aS'Star Wars '
p797
aS'Starman '
p798
aS'The Stars Look Down '
p799
aS'State Fair '
p800
aS'Stevie '
p801
aS'Stolen Kisses '
p802
aS'Stop Making Sense '
p803
aS'Stormy Monday '
p804
aS'The Story of Ad\xe8le H. '
p805
aS'The Story of G.I. Joe '
p806
aS'The Story of Qiu Ju '
p807
aS'Story of Women '
p808
aS'Storytelling '
p809
aS'La Strada '
p810
aS'The Straight Story '
p811
aS'Straight Time '
p812
aS'Stranger Than Paradise '
p813
aS'Strangers on a Train '
p814
aS'Straw Dogs '
p815
aS'A Streetcar Named Desire '
p816
aS'Stroszek '
p817
aS'Suddenly, Last Summer '
p818
aS'The Sugarland Express '
p819
aS"Sullivan's Travels "
p820
aS'Summer '
p821
aS'Summertime '
p822
aS'Sunday Bloody Sunday '
p823
aS'Sundays and Cybele '
p824
aS'Sunset Boulevard '
p825
aS'Suspicion '
p826
aS'The Sweet Hereafter '
p827
aS'Sweet Smell of Success '
p828
aS"Sweet Sweetback's Baadasssss Song "
p829
aS'Swept Away (By an Unusual Destiny in the Blue Sea of August) '
p830
aS'Swing Time '
p831
aS'The Taking of Pelham One Two Three '
p832
aS'Talk to Her '
p833
aS'Tampopo '
p834
aS'Taste of Cherry '
p835
aS'Taxi Driver '
p836
aS'A Taxing Woman '
p837
aS"A Taxing Woman's Return "
p838
aS'Tell Them Willie Boy Is Here '
p839
aS'10 '
p840
aS'The Ten Commandments '
p841
aS'Tender Mercies '
p842
aS'The Tender Trap '
p843
aS'Terms of Endearment '
p844
aS'Tess '
p845
aS'That Obscure Object of Desire '
p846
aS"That's Life! "
p847
aS'Thelma & Louise '
p848
aS'These Three '
p849
aS'They Live by Night '
p850
aS"They Shoot Horses, Don't They? "
p851
aS'They Were Expendable '
p852
aS"They Won't Forget "
p853
aS'The Thief of Bagdad '
p854
aS'The Thin Blue Line '
p855
aS'The Thin Man '
p856
aS'The Thin Red Line '
p857
aS'The Third Man '
p858
aS'The Thirty-Nine Steps '
p859
aS'Thirty Two Short Films About Glenn Gould '
p860
aS'This Is Spinal Tap '
p861
aS'The Man Must Die '
p862
aS'This Sporting Life '
p863
aS'Three Comrades '
p864
aS'Three Days of the Condor '
p865
aS'Throne of Blood '
p866
aS'Tight Little Island '
p867
aS'The Tin Drum '
p868
aS'To Be or Not to Be '
p869
aS'To Catch a Thief '
p870
aS'To Have and Have Not '
p871
aS'To Kill a Mockingbird '
p872
aS'To Live '
p873
aS'Tokyo Story '
p874
aS'Tom Jones '
p875
aS'Tootsie '
p876
aS'Top Hat '
p877
aS'Topaz '
p878
aS'Topkapi '
p879
aS'Total Recall '
p880
aS'Touch of Evil '
p881
aS'Toy Story '
p882
aS'Traffic '
p883
aS'The Train '
p884
aS'Trainspotting '
p885
aS'The Treasure of the Sierra Madre '
p886
aS'A Tree Grows in Brooklyn '
p887
aS'The Tree of the Wooden Clogs '
p888
aS'The Trip to Bountiful '
p889
aS'Tristana '
p890
aS'Trouble in Paradise '
p891
aS'The Trouble with Harry '
p892
aS'True Grit '
p893
aS'True Love '
p894
aS'Trust '
p895
aS'Tunes of Glory '
p896
aS'12 Angry Men '
p897
aS"Twelve O'Clock High "
p898
aS'Twentieth Century '
p899
aS'Two English Girls '
p900
aS'The Two of Us '
p901
aS'2001: A Space Odyssey '
p902
aS'Two Women '
p903
aS'Ugetsu '
p904
aS"Ulzana's Raid "
p905
aS'Umberto D. '
p906
aS'The Unbearable Lightness of Being '
p907
aS'Unforgiven '
p908
aS'The Usual Suspects '
p909
aS'Vanya on 42nd Street '
p910
aS'The Verdict '
p911
aS'Vertigo '
p912
aS'Videodrome '
p913
aS'Violette Nozi\xe8re '
p914
aS'Viridiana '
p915
aS'Viva Zapata! '
p916
aS'The Voice of the Turtle '
p917
aS'The Wages of Fear '
p918
aS'Waking Life '
p919
aS'Walkabout '
p920
aS'A Walk in the Sun '
p921
aS'The War Game '
p922
aS'The War of the Roses '
p923
aS'The Warriors '
p924
aS'Watch on the Rhine '
p925
aS'The Waterdance '
p926
aS'The Way We Were '
p927
aS'Weekend '
p928
aS'Welcome to the Dollhouse '
p929
aS"The Well-Digger's Daughter "
p930
aS'West Side Story '
p931
aS'The Whales of August '
p932
aS'What Ever Happened to Baby Jane? '
p933
aS"What's Eating Gilbert Grape "
p934
aS"What's Up, Doc? "
p935
aS'When Harry Met Sally '
p936
aS'White Heat '
p937
aS'Who Framed Roger Rabbit '
p938
aS"Who's Afraid of Virginia Woolf? "
p939
aS'The Wild Bunch '
p940
aS'The Wild Child '
p941
aS'Wild Reeds '
p942
aS'Wild Strawberries '
p943
aS'Wilson '
p944
aS'Wings of Desire '
p945
aS'Wise Blood '
p946
aS'The Wizard of Oz '
p947
aS'Woman in the Dunes '
p948
aS'Woman of the Year '
p949
aS'The Women '
p950
aS'Women in Love '
p951
aS'Women on the Verge of a Nervous Breakdown '
p952
aS'Woodstock '
p953
aS'Working Girl '
p954
aS'The World of Henry Orient '
p955
aS'Written on the Wind '
p956
aS'Wuthering Heights '
p957
aS'Yankee Doodle Dandy '
p958
aS'The Year of Living Dangerously '
p959
aS'The Yearling '
p960
aS'Yellow Submarine '
p961
aS'Yi Yi: A One and a Two '
p962
aS'Yojimbo '
p963
aS'You Can Count On Me '
p964
aS'You Only Live Once '
p965
aS'Young Frankenstein '
p966
aS'Young Mr. Lincoln '
p967
aS'Y Tu Mam\xe1 Tambi\xe9n '
p968
aS'Z '
p969
aS'Zero for Conduct '
p970
a.